target datalayout = "e-m:e-p270:32:32-p271:32:32-p272:64:64-i64:64-i128:128-f80:128-n8:16:32:64-S128"
target triple = "x86_64-pc-linux-gnu"

; Function Attrs: mustprogress uwtable
define internal noundef i32 @_ZL7tremoveP9lua_State(ptr noundef %0) #0 {
  %2 = alloca i32, align 4
  %3 = alloca ptr, align 8
  %4 = alloca i32, align 4
  %5 = alloca i32, align 4
  %6 = alloca i32, align 4
  store ptr %0, ptr %3, align 8, !tbaa !4
  %7 = load ptr, ptr %3, align 8, !tbaa !4
  call void @_Z14luaL_checktypeP9lua_Stateii(ptr noundef %7, i32 noundef 1, i32 noundef 6)
  call void @llvm.lifetime.start.p0(i64 4, ptr %4) #7
  %8 = load ptr, ptr %3, align 8, !tbaa !4
  %9 = call noundef i32 @_Z10lua_objlenP9lua_Statei(ptr noundef %8, i32 noundef 1)
  store i32 %9, ptr %4, align 4, !tbaa !23
  call void @llvm.lifetime.start.p0(i64 4, ptr %5) #7
  %10 = load ptr, ptr %3, align 8, !tbaa !4
  %11 = load i32, ptr %4, align 4, !tbaa !23
  %12 = call noundef i32 @_Z15luaL_optintegerP9lua_Stateii(ptr noundef %10, i32 noundef 2, i32 noundef %11)
  store i32 %12, ptr %5, align 4, !tbaa !23
  %13 = load i32, ptr %5, align 4, !tbaa !23
  %14 = icmp sle i32 1, %13
  br i1 %14, label %15, label %19

15:                                               ; preds = %1
  %16 = load i32, ptr %5, align 4, !tbaa !23
  %17 = load i32, ptr %4, align 4, !tbaa !23
  %18 = icmp sle i32 %16, %17
  br i1 %18, label %20, label %19

19:                                               ; preds = %15, %1
  store i32 0, ptr %2, align 4
  store i32 1, ptr %6, align 4
  br label %32

20:                                               ; preds = %15
  %21 = load ptr, ptr %3, align 8, !tbaa !4
  %22 = load i32, ptr %5, align 4, !tbaa !23
  %23 = call noundef i32 @_Z11lua_rawgetiP9lua_Stateii(ptr noundef %21, i32 noundef 1, i32 noundef %22)
  %24 = load ptr, ptr %3, align 8, !tbaa !4
  %25 = load i32, ptr %5, align 4, !tbaa !23
  %26 = add nsw i32 %25, 1
  %27 = load i32, ptr %4, align 4, !tbaa !23
  %28 = load i32, ptr %5, align 4, !tbaa !23
  call void @_ZL12moveelementsP9lua_Stateiiiii(ptr noundef %24, i32 noundef 1, i32 noundef 1, i32 noundef %26, i32 noundef %27, i32 noundef %28)
  %29 = load ptr, ptr %3, align 8, !tbaa !4
  call void @_Z11lua_pushnilP9lua_State(ptr noundef %29)
  %30 = load ptr, ptr %3, align 8, !tbaa !4
  %31 = load i32, ptr %4, align 4, !tbaa !23
  call void @_Z11lua_rawsetiP9lua_Stateii(ptr noundef %30, i32 noundef 1, i32 noundef %31)
  store i32 1, ptr %2, align 4
  store i32 1, ptr %6, align 4
  br label %32

32:                                               ; preds = %20, %19
  call void @llvm.lifetime.end.p0(i64 4, ptr %5) #7
  call void @llvm.lifetime.end.p0(i64 4, ptr %4) #7
  %33 = load i32, ptr %2, align 4
  ret i32 %33
}