; Function Attrs: mustprogress uwtable
define internal noundef range(i32 0, 2) i32 @_ZL7tremoveP9lua_State(ptr noundef %0) #0 {
  tail call void @_Z14luaL_checktypeP9lua_Stateii(ptr noundef %0, i32 noundef 1, i32 noundef 6)
  %2 = tail call noundef i32 @_Z10lua_objlenP9lua_Statei(ptr noundef %0, i32 noundef 1)
  %3 = tail call noundef i32 @_Z15luaL_optintegerP9lua_Stateii(ptr noundef %0, i32 noundef 2, i32 noundef %2)
  %4 = icmp slt i32 %3, 1
  %.not = icmp sgt i32 %3, %2
  %or.cond = or i1 %4, %.not
  br i1 %or.cond, label %8, label %5

5:                                                ; preds = %1
  %6 = tail call noundef i32 @_Z11lua_rawgetiP9lua_Stateii(ptr noundef %0, i32 noundef 1, i32 noundef %3)
  %7 = add nuw nsw i32 %3, 1
  tail call fastcc void @_ZL12moveelementsP9lua_Stateiiiii(ptr noundef %0, i32 noundef 1, i32 noundef %7, i32 noundef %2, i32 noundef %3)
  tail call void @_Z11lua_pushnilP9lua_State(ptr noundef %0)
  tail call void @_Z11lua_rawsetiP9lua_Stateii(ptr noundef %0, i32 noundef 1, i32 noundef %2)
  br label %8

8:                                                ; preds = %1, %5
  %.0 = phi i32 [ 1, %5 ], [ 0, %1 ]
  ret i32 %.0
}